; Function Attrs: mustprogress uwtable
define dso_local noundef zeroext i1 @_ZN5ImGui10TreeNodeExEPKci(ptr noundef %0, i32 noundef %1) local_unnamed_addr #5 {
  %3 = load ptr, ptr @GImGui, align 8, !tbaa !4
  %4 = getelementptr inbounds nuw i8, ptr %3, i64 4928
  %5 = load ptr, ptr %4, align 8, !tbaa !9
  %6 = getelementptr inbounds nuw i8, ptr %5, i64 204
  store i8 1, ptr %6, align 4, !tbaa !130
  %7 = getelementptr inbounds nuw i8, ptr %5, i64 207
  %8 = load i8, ptr %7, align 1, !tbaa !151, !range !152, !noundef !153
  %9 = trunc nuw i8 %8 to i1
  br i1 %9, label %13, label %10

10:                                               ; preds = %2
  %11 = tail call noundef i32 @_ZN11ImGuiWindow5GetIDEPKcS1_(ptr noundef nonnull align 8 dereferenceable(1029) %5, ptr noundef %0, ptr noundef null)
  %12 = tail call noundef zeroext i1 @_ZN5ImGui16TreeNodeBehaviorEjiPKcS1_(i32 noundef %11, i32 noundef %1, ptr noundef %0, ptr noundef null)
  br label %13

13:                                               ; preds = %2, %10
  %.0 = phi i1 [ %12, %10 ], [ false, %2 ]
  ret i1 %.0
}